; Function Attrs: nofree nounwind sspstrong uwtable
define dso_local i32 @main() local_unnamed_addr #0 {
  %1 = tail call i32 (i8*, ...) @__isoc99_scanf(i8* getelementptr inbounds ([5 x i8], [5 x i8]* @.str, i64 0, i64 0), i32* nonnull @m, i32* nonnull @n) #5
  %2 = load i32, i32* @m, align 4, !tbaa !5
  %3 = icmp sgt i32 %2, 0
  br i1 %3, label %8, label %4

4:                                                ; preds = %8, %0
  %5 = phi i32 [ %2, %0 ], [ %13, %8 ]
  %6 = load i32, i32* @n, align 4, !tbaa !5
  %7 = icmp sgt i32 %6, 0
  br i1 %7, label %16, label %26

8:                                                ; preds = %0, %8
  %9 = phi i64 [ %12, %8 ], [ 0, %0 ]
  %10 = getelementptr inbounds [200 x i32], [200 x i32]* @a, i64 0, i64 %9
  %11 = tail call i32 (i8*, ...) @__isoc99_scanf(i8* getelementptr inbounds ([3 x i8], [3 x i8]* @.str.1, i64 0, i64 0), i32* nonnull %10) #5
  %12 = add nuw nsw i64 %9, 1
  %13 = load i32, i32* @m, align 4, !tbaa !5
  %14 = sext i32 %13 to i64
  %15 = icmp slt i64 %12, %14
  br i1 %15, label %8, label %4, !llvm.loop !9

16:                                               ; preds = %4, %16
  %17 = phi i64 [ %20, %16 ], [ 0, %4 ]
  %18 = getelementptr inbounds [100 x i32], [100 x i32]* @b, i64 0, i64 %17
  %19 = tail call i32 (i8*, ...) @__isoc99_scanf(i8* getelementptr inbounds ([3 x i8], [3 x i8]* @.str.1, i64 0, i64 0), i32* nonnull %18) #5
  %20 = add nuw nsw i64 %17, 1
  %21 = load i32, i32* @n, align 4, !tbaa !5
  %22 = sext i32 %21 to i64
  %23 = icmp slt i64 %20, %22
  br i1 %23, label %16, label %24, !llvm.loop !11

24:                                               ; preds = %16
  %25 = load i32, i32* @m, align 4, !tbaa !5
  br label %26

26:                                               ; preds = %24, %4
  %27 = phi i32 [ %21, %24 ], [ %6, %4 ]
  %28 = phi i32 [ %25, %24 ], [ %5, %4 ]
  %29 = icmp sgt i32 %28, 1
  br i1 %29, label %30, label %74

30:                                               ; preds = %26, %70
  %31 = phi i32 [ %73, %70 ], [ 0, %26 ]
  %32 = phi i32 [ %71, %70 ], [ 1, %26 ]
  %33 = xor i32 %31, -1
  %34 = add i32 %28, %33
  %35 = zext i32 %34 to i64
  %36 = icmp slt i32 %32, %28
  br i1 %36, label %37, label %70

37:                                               ; preds = %30
  %38 = load i32, i32* getelementptr inbounds ([200 x i32], [200 x i32]* @a, i64 0, i64 0), align 16, !tbaa !5
  %39 = and i64 %35, 1
  %40 = icmp eq i32 %34, 1
  br i1 %40, label %59, label %41

41:                                               ; preds = %37
  %42 = and i64 %35, 4294967294
  br label %43

43:                                               ; preds = %155, %41
  %44 = phi i32 [ %38, %41 ], [ %156, %155 ]
  %45 = phi i64 [ 0, %41 ], [ %55, %155 ]
  %46 = phi i64 [ %42, %41 ], [ %157, %155 ]
  %47 = or i64 %45, 1
  %48 = getelementptr inbounds [200 x i32], [200 x i32]* @a, i64 0, i64 %47
  %49 = load i32, i32* %48, align 4, !tbaa !5
  %50 = icmp sgt i32 %44, %49
  br i1 %50, label %51, label %53

51:                                               ; preds = %43
  %52 = getelementptr inbounds [200 x i32], [200 x i32]* @a, i64 0, i64 %45
  store i32 %49, i32* %52, align 8, !tbaa !5
  store i32 %44, i32* %48, align 4, !tbaa !5
  br label %53

53:                                               ; preds = %51, %43
  %54 = phi i32 [ %49, %43 ], [ %44, %51 ]
  %55 = add nuw nsw i64 %45, 2
  %56 = getelementptr inbounds [200 x i32], [200 x i32]* @a, i64 0, i64 %55
  %57 = load i32, i32* %56, align 8, !tbaa !5
  %58 = icmp sgt i32 %54, %57
  br i1 %58, label %153, label %155

59:                                               ; preds = %155, %37
  %60 = phi i32 [ %38, %37 ], [ %156, %155 ]
  %61 = phi i64 [ 0, %37 ], [ %55, %155 ]
  %62 = icmp eq i64 %39, 0
  br i1 %62, label %70, label %63

63:                                               ; preds = %59
  %64 = add nuw nsw i64 %61, 1
  %65 = getelementptr inbounds [200 x i32], [200 x i32]* @a, i64 0, i64 %64
  %66 = load i32, i32* %65, align 4, !tbaa !5
  %67 = icmp sgt i32 %60, %66
  br i1 %67, label %68, label %70

68:                                               ; preds = %63
  %69 = getelementptr inbounds [200 x i32], [200 x i32]* @a, i64 0, i64 %61
  store i32 %66, i32* %69, align 4, !tbaa !5
  store i32 %60, i32* %65, align 4, !tbaa !5
  br label %70

70:                                               ; preds = %59, %63, %68, %30
  %71 = add nuw nsw i32 %32, 1
  %72 = icmp eq i32 %71, %28
  %73 = add i32 %31, 1
  br i1 %72, label %74, label %30, !llvm.loop !12

74:                                               ; preds = %70, %26
  %75 = icmp sgt i32 %27, 1
  br i1 %75, label %76, label %120

76:                                               ; preds = %74, %116
  %77 = phi i32 [ %119, %116 ], [ 0, %74 ]
  %78 = phi i32 [ %117, %116 ], [ 1, %74 ]
  %79 = xor i32 %77, -1
  %80 = add i32 %27, %79
  %81 = zext i32 %80 to i64
  %82 = icmp slt i32 %78, %27
  br i1 %82, label %83, label %116

83:                                               ; preds = %76
  %84 = load i32, i32* getelementptr inbounds ([100 x i32], [100 x i32]* @b, i64 0, i64 0), align 16, !tbaa !5
  %85 = and i64 %81, 1
  %86 = icmp eq i32 %80, 1
  br i1 %86, label %105, label %87

87:                                               ; preds = %83
  %88 = and i64 %81, 4294967294
  br label %89

89:                                               ; preds = %161, %87
  %90 = phi i32 [ %84, %87 ], [ %162, %161 ]
  %91 = phi i64 [ 0, %87 ], [ %101, %161 ]
  %92 = phi i64 [ %88, %87 ], [ %163, %161 ]
  %93 = or i64 %91, 1
  %94 = getelementptr inbounds [100 x i32], [100 x i32]* @b, i64 0, i64 %93
  %95 = load i32, i32* %94, align 4, !tbaa !5
  %96 = icmp sgt i32 %90, %95
  br i1 %96, label %97, label %99

97:                                               ; preds = %89
  %98 = getelementptr inbounds [100 x i32], [100 x i32]* @b, i64 0, i64 %91
  store i32 %95, i32* %98, align 8, !tbaa !5
  store i32 %90, i32* %94, align 4, !tbaa !5
  br label %99

99:                                               ; preds = %97, %89
  %100 = phi i32 [ %95, %89 ], [ %90, %97 ]
  %101 = add nuw nsw i64 %91, 2
  %102 = getelementptr inbounds [100 x i32], [100 x i32]* @b, i64 0, i64 %101
  %103 = load i32, i32* %102, align 8, !tbaa !5
  %104 = icmp sgt i32 %100, %103
  br i1 %104, label %159, label %161

105:                                              ; preds = %161, %83
  %106 = phi i32 [ %84, %83 ], [ %162, %161 ]
  %107 = phi i64 [ 0, %83 ], [ %101, %161 ]
  %108 = icmp eq i64 %85, 0
  br i1 %108, label %116, label %109

109:                                              ; preds = %105
  %110 = add nuw nsw i64 %107, 1
  %111 = getelementptr inbounds [100 x i32], [100 x i32]* @b, i64 0, i64 %110
  %112 = load i32, i32* %111, align 4, !tbaa !5
  %113 = icmp sgt i32 %106, %112
  br i1 %113, label %114, label %116

114:                                              ; preds = %109
  %115 = getelementptr inbounds [100 x i32], [100 x i32]* @b, i64 0, i64 %107
  store i32 %112, i32* %115, align 4, !tbaa !5
  store i32 %106, i32* %111, align 4, !tbaa !5
  br label %116

116:                                              ; preds = %105, %109, %114, %76
  %117 = add nuw nsw i32 %78, 1
  %118 = icmp eq i32 %117, %27
  %119 = add i32 %77, 1
  br i1 %118, label %120, label %76, !llvm.loop !12

120:                                              ; preds = %116, %74
  %121 = icmp sgt i32 %27, 0
  br i1 %121, label %122, label %134

122:                                              ; preds = %120
  %123 = sext i32 %28 to i64
  %124 = getelementptr [200 x i32], [200 x i32]* @a, i64 0, i64 %123
  %125 = bitcast i32* %124 to i8*
  %126 = add i32 %27, %28
  %127 = add i32 %28, 1
  %128 = tail call i32 @llvm.smax.i32(i32 %126, i32 %127) #5
  %129 = xor i32 %28, -1
  %130 = add i32 %128, %129
  %131 = zext i32 %130 to i64
  %132 = shl nuw nsw i64 %131, 2
  %133 = add nuw nsw i64 %132, 4
  tail call void @llvm.memcpy.p0i8.p0i8.i64(i8* noundef nonnull align 4 dereferenceable(1) %125, i8* noundef nonnull align 16 dereferenceable(1) bitcast ([100 x i32]* @b to i8*), i64 %133, i1 false) #5
  br label %134

134:                                              ; preds = %120, %122
  %135 = load i32, i32* getelementptr inbounds ([200 x i32], [200 x i32]* @a, i64 0, i64 0), align 16, !tbaa !5
  %136 = tail call i32 (i8*, ...) @printf(i8* nonnull dereferenceable(1) getelementptr inbounds ([3 x i8], [3 x i8]* @.str.1, i64 0, i64 0), i32 %135) #5
  %137 = load i32, i32* @m, align 4, !tbaa !5
  %138 = load i32, i32* @n, align 4, !tbaa !5
  %139 = add nsw i32 %138, %137
  %140 = icmp sgt i32 %139, 1
  br i1 %140, label %141, label %152

141:                                              ; preds = %134, %141
  %142 = phi i64 [ %146, %141 ], [ 1, %134 ]
  %143 = getelementptr inbounds [200 x i32], [200 x i32]* @a, i64 0, i64 %142
  %144 = load i32, i32* %143, align 4, !tbaa !5
  %145 = tail call i32 (i8*, ...) @printf(i8* nonnull dereferenceable(1) getelementptr inbounds ([4 x i8], [4 x i8]* @.str.2, i64 0, i64 0), i32 %144) #5
  %146 = add nuw nsw i64 %142, 1
  %147 = load i32, i32* @m, align 4, !tbaa !5
  %148 = load i32, i32* @n, align 4, !tbaa !5
  %149 = add nsw i32 %148, %147
  %150 = sext i32 %149 to i64
  %151 = icmp slt i64 %146, %150
  br i1 %151, label %141, label %152, !llvm.loop !13

152:                                              ; preds = %141, %134
  ret i32 0

153:                                              ; preds = %53
  %154 = getelementptr inbounds [200 x i32], [200 x i32]* @a, i64 0, i64 %47
  store i32 %57, i32* %154, align 4, !tbaa !5
  store i32 %54, i32* %56, align 8, !tbaa !5
  br label %155

155:                                              ; preds = %153, %53
  %156 = phi i32 [ %57, %53 ], [ %54, %153 ]
  %157 = add i64 %46, -2
  %158 = icmp eq i64 %157, 0
  br i1 %158, label %59, label %43, !llvm.loop !14

159:                                              ; preds = %99
  %160 = getelementptr inbounds [100 x i32], [100 x i32]* @b, i64 0, i64 %93
  store i32 %103, i32* %160, align 4, !tbaa !5
  store i32 %100, i32* %102, align 8, !tbaa !5
  br label %161

161:                                              ; preds = %159, %99
  %162 = phi i32 [ %103, %99 ], [ %100, %159 ]
  %163 = add i64 %92, -2
  %164 = icmp eq i64 %163, 0
  br i1 %164, label %105, label %89, !llvm.loop !14
}

; Function Attrs: nofree norecurse nosync nounwind sspstrong uwtable
define dso_local void @paixu(i32* nocapture %0, i32 %1) local_unnamed_addr #1 {
  %3 = icmp sgt i32 %1, 1
  br i1 %3, label %4, label %48

4:                                                ; preds = %2, %44
  %5 = phi i32 [ %47, %44 ], [ 0, %2 ]
  %6 = phi i32 [ %45, %44 ], [ 1, %2 ]
  %7 = xor i32 %5, -1
  %8 = add i32 %7, %1
  %9 = zext i32 %8 to i64
  %10 = icmp slt i32 %6, %1
  br i1 %10, label %11, label %44

11:                                               ; preds = %4
  %12 = load i32, i32* %0, align 4, !tbaa !5
  %13 = and i64 %9, 1
  %14 = icmp eq i32 %8, 1
  br i1 %14, label %33, label %15

15:                                               ; preds = %11
  %16 = and i64 %9, 4294967294
  br label %17

17:                                               ; preds = %51, %15
  %18 = phi i32 [ %12, %15 ], [ %52, %51 ]
  %19 = phi i64 [ 0, %15 ], [ %29, %51 ]
  %20 = phi i64 [ %16, %15 ], [ %53, %51 ]
  %21 = or i64 %19, 1
  %22 = getelementptr inbounds i32, i32* %0, i64 %21
  %23 = load i32, i32* %22, align 4, !tbaa !5
  %24 = icmp sgt i32 %18, %23
  br i1 %24, label %25, label %27

25:                                               ; preds = %17
  %26 = getelementptr inbounds i32, i32* %0, i64 %19
  store i32 %23, i32* %26, align 4, !tbaa !5
  store i32 %18, i32* %22, align 4, !tbaa !5
  br label %27

27:                                               ; preds = %17, %25
  %28 = phi i32 [ %23, %17 ], [ %18, %25 ]
  %29 = add nuw nsw i64 %19, 2
  %30 = getelementptr inbounds i32, i32* %0, i64 %29
  %31 = load i32, i32* %30, align 4, !tbaa !5
  %32 = icmp sgt i32 %28, %31
  br i1 %32, label %49, label %51

33:                                               ; preds = %51, %11
  %34 = phi i32 [ %12, %11 ], [ %52, %51 ]
  %35 = phi i64 [ 0, %11 ], [ %29, %51 ]
  %36 = icmp eq i64 %13, 0
  br i1 %36, label %44, label %37

37:                                               ; preds = %33
  %38 = add nuw nsw i64 %35, 1
  %39 = getelementptr inbounds i32, i32* %0, i64 %38
  %40 = load i32, i32* %39, align 4, !tbaa !5
  %41 = icmp sgt i32 %34, %40
  br i1 %41, label %42, label %44

42:                                               ; preds = %37
  %43 = getelementptr inbounds i32, i32* %0, i64 %35
  store i32 %40, i32* %43, align 4, !tbaa !5
  store i32 %34, i32* %39, align 4, !tbaa !5
  br label %44

44:                                               ; preds = %33, %37, %42, %4
  %45 = add nuw nsw i32 %6, 1
  %46 = icmp eq i32 %45, %1
  %47 = add i32 %5, 1
  br i1 %46, label %48, label %4, !llvm.loop !12

48:                                               ; preds = %44, %2
  ret void

49:                                               ; preds = %27
  %50 = getelementptr inbounds i32, i32* %0, i64 %21
  store i32 %31, i32* %50, align 4, !tbaa !5
  store i32 %28, i32* %30, align 4, !tbaa !5
  br label %51

51:                                               ; preds = %49, %27
  %52 = phi i32 [ %31, %27 ], [ %28, %49 ]
  %53 = add i64 %20, -2
  %54 = icmp eq i64 %53, 0
  br i1 %54, label %33, label %17, !llvm.loop !14
}

; Function Attrs: nofree nounwind sspstrong uwtable
define dso_local void @getarray() local_unnamed_addr #0 {
  %1 = tail call i32 (i8*, ...) @__isoc99_scanf(i8* getelementptr inbounds ([5 x i8], [5 x i8]* @.str, i64 0, i64 0), i32* nonnull @m, i32* nonnull @n)
  %2 = load i32, i32* @m, align 4, !tbaa !5
  %3 = icmp sgt i32 %2, 0
  br i1 %3, label %7, label %4

4:                                                ; preds = %7, %0
  %5 = load i32, i32* @n, align 4, !tbaa !5
  %6 = icmp sgt i32 %5, 0
  br i1 %6, label %15, label %23

7:                                                ; preds = %0, %7
  %8 = phi i64 [ %11, %7 ], [ 0, %0 ]
  %9 = getelementptr inbounds [200 x i32], [200 x i32]* @a, i64 0, i64 %8
  %10 = tail call i32 (i8*, ...) @__isoc99_scanf(i8* getelementptr inbounds ([3 x i8], [3 x i8]* @.str.1, i64 0, i64 0), i32* nonnull %9)
  %11 = add nuw nsw i64 %8, 1
  %12 = load i32, i32* @m, align 4, !tbaa !5
  %13 = sext i32 %12 to i64
  %14 = icmp slt i64 %11, %13
  br i1 %14, label %7, label %4, !llvm.loop !9

15:                                               ; preds = %4, %15
  %16 = phi i64 [ %19, %15 ], [ 0, %4 ]
  %17 = getelementptr inbounds [100 x i32], [100 x i32]* @b, i64 0, i64 %16
  %18 = tail call i32 (i8*, ...) @__isoc99_scanf(i8* getelementptr inbounds ([3 x i8], [3 x i8]* @.str.1, i64 0, i64 0), i32* nonnull %17)
  %19 = add nuw nsw i64 %16, 1
  %20 = load i32, i32* @n, align 4, !tbaa !5
  %21 = sext i32 %20 to i64
  %22 = icmp slt i64 %19, %21
  br i1 %22, label %15, label %23, !llvm.loop !11

23:                                               ; preds = %15, %4
  ret void
}

; Function Attrs: nofree norecurse nosync nounwind sspstrong uwtable
define dso_local void @hebin() local_unnamed_addr #1 {
  %1 = load i32, i32* @m, align 4, !tbaa !5
  %2 = load i32, i32* @n, align 4, !tbaa !5
  %3 = icmp sgt i32 %2, 0
  br i1 %3, label %4, label %16

4:                                                ; preds = %0
  %5 = sext i32 %1 to i64
  %6 = getelementptr [200 x i32], [200 x i32]* @a, i64 0, i64 %5
  %7 = bitcast i32* %6 to i8*
  %8 = add i32 %2, %1
  %9 = add i32 %1, 1
  %10 = call i32 @llvm.smax.i32(i32 %8, i32 %9)
  %11 = xor i32 %1, -1
  %12 = add i32 %10, %11
  %13 = zext i32 %12 to i64
  %14 = shl nuw nsw i64 %13, 2
  %15 = add nuw nsw i64 %14, 4
  call void @llvm.memcpy.p0i8.p0i8.i64(i8* noundef nonnull align 4 dereferenceable(1) %7, i8* noundef nonnull align 16 dereferenceable(1) bitcast ([100 x i32]* @b to i8*), i64 %15, i1 false)
  br label %16

16:                                               ; preds = %4, %0
  ret void
}

; Function Attrs: nofree nounwind sspstrong uwtable
define dso_local void @print() local_unnamed_addr #0 {
  %1 = load i32, i32* getelementptr inbounds ([200 x i32], [200 x i32]* @a, i64 0, i64 0), align 16, !tbaa !5
  %2 = tail call i32 (i8*, ...) @printf(i8* nonnull dereferenceable(1) getelementptr inbounds ([3 x i8], [3 x i8]* @.str.1, i64 0, i64 0), i32 %1)
  %3 = load i32, i32* @m, align 4, !tbaa !5
  %4 = load i32, i32* @n, align 4, !tbaa !5
  %5 = add nsw i32 %4, %3
  %6 = icmp sgt i32 %5, 1
  br i1 %6, label %7, label %18

7:                                                ; preds = %0, %7
  %8 = phi i64 [ %12, %7 ], [ 1, %0 ]
  %9 = getelementptr inbounds [200 x i32], [200 x i32]* @a, i64 0, i64 %8
  %10 = load i32, i32* %9, align 4, !tbaa !5
  %11 = tail call i32 (i8*, ...) @printf(i8* nonnull dereferenceable(1) getelementptr inbounds ([4 x i8], [4 x i8]* @.str.2, i64 0, i64 0), i32 %10)
  %12 = add nuw nsw i64 %8, 1
  %13 = load i32, i32* @m, align 4, !tbaa !5
  %14 = load i32, i32* @n, align 4, !tbaa !5
  %15 = add nsw i32 %14, %13
  %16 = sext i32 %15 to i64
  %17 = icmp slt i64 %12, %16
  br i1 %17, label %7, label %18, !llvm.loop !13

18:                                               ; preds = %7, %0
  ret void
}